target datalayout = "e-m:e-p270:32:32-p271:32:32-p272:64:64-i64:64-i128:128-f80:128-n8:16:32:64-S128"
target triple = "x86_64-unknown-linux-gnu"

%"class.icu_75::MaybeStackArray" = type <{ ptr, i32, i8, [40 x i8], [3 x i8] }>
%"class.icu_75::StringPiece" = type <{ ptr, i32, [4 x i8] }>
%"class.icu_75::units::UnitPreferenceMetadata" = type { [8 x i8], %"class.icu_75::CharString", %"class.icu_75::CharString", %"class.icu_75::CharString", i32, i32 }
%"class.icu_75::CharString" = type { %"class.icu_75::MaybeStackArray", i32, [4 x i8] }

@_ZN6icu_7515MaybeStackArrayIcLi40EEC1Ev = weak_odr unnamed_addr alias void (ptr), ptr @_ZN6icu_7515MaybeStackArrayIcLi40EEC2Ev
@_ZN6icu_7515MaybeStackArrayIcLi40EED1Ev = weak_odr unnamed_addr alias void (ptr), ptr @_ZN6icu_7515MaybeStackArrayIcLi40EED2Ev

; Function Attrs: mustprogress nounwind uwtable
define linkonce_odr noundef i32 @_ZNK6icu_7511StringPiece6lengthEv(ptr noundef nonnull align 8 dereferenceable(12) %this) #0 comdat align 2 {
entry:
  %this.addr = alloca ptr, align 8
  store ptr %this, ptr %this.addr, align 8
  %this1 = load ptr, ptr %this.addr, align 8
  %length_ = getelementptr inbounds %"class.icu_75::StringPiece", ptr %this1, i32 0, i32 1
  %0 = load i32, ptr %length_, align 8
  ret i32 %0
}

; Function Attrs: mustprogress nounwind uwtable
define linkonce_odr noundef ptr @_ZNK6icu_7511StringPiece4dataEv(ptr noundef nonnull align 8 dereferenceable(12) %this) #0 comdat align 2 {
entry:
  %this.addr = alloca ptr, align 8
  store ptr %this, ptr %this.addr, align 8
  %this1 = load ptr, ptr %this.addr, align 8
  %ptr_ = getelementptr inbounds %"class.icu_75::StringPiece", ptr %this1, i32 0, i32 0
  %0 = load ptr, ptr %ptr_, align 8
  ret ptr %0
}

; Function Attrs: mustprogress nounwind uwtable
define weak_odr noundef nonnull align 1 dereferenceable(1) ptr @_ZN6icu_7515MaybeStackArrayIcLi40EEixEl(ptr noundef nonnull align 8 dereferenceable(53) %this, i64 noundef %i) #0 comdat align 2 {
entry:
  %this.addr = alloca ptr, align 8
  %i.addr = alloca i64, align 8
  store ptr %this, ptr %this.addr, align 8
  store i64 %i, ptr %i.addr, align 8
  %this1 = load ptr, ptr %this.addr, align 8
  %ptr = getelementptr inbounds %"class.icu_75::MaybeStackArray", ptr %this1, i32 0, i32 0
  %0 = load ptr, ptr %ptr, align 8
  %1 = load i64, ptr %i.addr, align 8
  %arrayidx = getelementptr inbounds i8, ptr %0, i64 %1
  ret ptr %arrayidx
}

; Function Attrs: mustprogress nounwind uwtable
define linkonce_odr void @_ZN6icu_7510CharStringD2Ev(ptr noundef nonnull align 8 dereferenceable(60) %this) unnamed_addr #0 comdat align 2 {
entry:
  %this.addr = alloca ptr, align 8
  store ptr %this, ptr %this.addr, align 8
  %this1 = load ptr, ptr %this.addr, align 8
  %buffer = getelementptr inbounds %"class.icu_75::CharString", ptr %this1, i32 0, i32 0
  call void @_ZN6icu_7515MaybeStackArrayIcLi40EED1Ev(ptr noundef nonnull align 8 dereferenceable(53) %buffer) #8
  ret void
}

; Function Attrs: mustprogress uwtable
define linkonce_odr noundef nonnull align 8 dereferenceable(60) ptr @_ZN6icu_7510CharString6appendENS_11StringPieceER10UErrorCode(ptr noundef nonnull align 8 dereferenceable(60) %this, ptr %s.coerce0, i32 %s.coerce1, ptr noundef nonnull align 4 dereferenceable(4) %errorCode) #1 comdat align 2 {
entry:
  %s = alloca %"class.icu_75::StringPiece", align 8
  %this.addr = alloca ptr, align 8
  %errorCode.addr = alloca ptr, align 8
  %0 = getelementptr inbounds { ptr, i32 }, ptr %s, i32 0, i32 0
  store ptr %s.coerce0, ptr %0, align 8
  %1 = getelementptr inbounds { ptr, i32 }, ptr %s, i32 0, i32 1
  store i32 %s.coerce1, ptr %1, align 8
  store ptr %this, ptr %this.addr, align 8
  store ptr %errorCode, ptr %errorCode.addr, align 8
  %this1 = load ptr, ptr %this.addr, align 8
  %call = call noundef ptr @_ZNK6icu_7511StringPiece4dataEv(ptr noundef nonnull align 8 dereferenceable(12) %s)
  %call2 = call noundef i32 @_ZNK6icu_7511StringPiece6lengthEv(ptr noundef nonnull align 8 dereferenceable(12) %s)
  %2 = load ptr, ptr %errorCode.addr, align 8
  %call3 = call noundef nonnull align 8 dereferenceable(60) ptr @_ZN6icu_7510CharString6appendEPKciR10UErrorCode(ptr noundef nonnull align 8 dereferenceable(60) %this1, ptr noundef %call, i32 noundef %call2, ptr noundef nonnull align 4 dereferenceable(4) %2)
  ret ptr %call3
}

; Function Attrs: mustprogress uwtable
define linkonce_odr void @_ZN6icu_7510CharStringC2Ev(ptr noundef nonnull align 8 dereferenceable(60) %this) unnamed_addr #1 comdat align 2 {
entry:
  %this.addr = alloca ptr, align 8
  store ptr %this, ptr %this.addr, align 8
  %this1 = load ptr, ptr %this.addr, align 8
  %buffer = getelementptr inbounds %"class.icu_75::CharString", ptr %this1, i32 0, i32 0
  call void @_ZN6icu_7515MaybeStackArrayIcLi40EEC1Ev(ptr noundef nonnull align 8 dereferenceable(53) %buffer)
  %len = getelementptr inbounds %"class.icu_75::CharString", ptr %this1, i32 0, i32 1
  store i32 0, ptr %len, align 8
  %buffer2 = getelementptr inbounds %"class.icu_75::CharString", ptr %this1, i32 0, i32 0
  %call = call noundef nonnull align 1 dereferenceable(1) ptr @_ZN6icu_7515MaybeStackArrayIcLi40EEixEl(ptr noundef nonnull align 8 dereferenceable(53) %buffer2, i64 noundef 0)
  store i8 0, ptr %call, align 1
  ret void
}

; Function Attrs: mustprogress uwtable
define void @_ZN6icu_755units22UnitPreferenceMetadataC2ENS_11StringPieceES2_S2_iiR10UErrorCode(ptr noundef nonnull align 8 dereferenceable(208) %this, ptr %category.coerce0, i32 %category.coerce1, ptr %usage.coerce0, i32 %usage.coerce1, ptr noundef byval(%"class.icu_75::StringPiece") align 8 %region, i32 noundef %prefsOffset, i32 noundef %prefsCount, ptr noundef nonnull align 4 dereferenceable(4) %status) unnamed_addr #1 align 2 personality ptr @__gxx_personality_v0 {
entry:
  %category = alloca %"class.icu_75::StringPiece", align 8
  %usage = alloca %"class.icu_75::StringPiece", align 8
  %this.addr = alloca ptr, align 8
  %prefsOffset.addr = alloca i32, align 4
  %prefsCount.addr = alloca i32, align 4
  %status.addr = alloca ptr, align 8
  %exn.slot = alloca ptr, align 8
  %ehselector.slot = alloca i32, align 4
  %agg.tmp = alloca %"class.icu_75::StringPiece", align 8
  %agg.tmp11 = alloca %"class.icu_75::StringPiece", align 8
  %agg.tmp15 = alloca %"class.icu_75::StringPiece", align 8
  %0 = getelementptr inbounds { ptr, i32 }, ptr %category, i32 0, i32 0
  store ptr %category.coerce0, ptr %0, align 8
  %1 = getelementptr inbounds { ptr, i32 }, ptr %category, i32 0, i32 1
  store i32 %category.coerce1, ptr %1, align 8
  %2 = getelementptr inbounds { ptr, i32 }, ptr %usage, i32 0, i32 0
  store ptr %usage.coerce0, ptr %2, align 8
  %3 = getelementptr inbounds { ptr, i32 }, ptr %usage, i32 0, i32 1
  store i32 %usage.coerce1, ptr %3, align 8
  store ptr %this, ptr %this.addr, align 8
  store i32 %prefsOffset, ptr %prefsOffset.addr, align 4
  store i32 %prefsCount, ptr %prefsCount.addr, align 4
  store ptr %status, ptr %status.addr, align 8
  %this1 = load ptr, ptr %this.addr, align 8
  %category2 = getelementptr inbounds %"class.icu_75::units::UnitPreferenceMetadata", ptr %this1, i32 0, i32 1
  call void @_ZN6icu_7510CharStringC2Ev(ptr noundef nonnull align 8 dereferenceable(60) %category2)
  %usage3 = getelementptr inbounds %"class.icu_75::units::UnitPreferenceMetadata", ptr %this1, i32 0, i32 2
  invoke void @_ZN6icu_7510CharStringC2Ev(ptr noundef nonnull align 8 dereferenceable(60) %usage3)
          to label %invoke.cont unwind label %lpad

invoke.cont:                                      ; preds = %entry
  %region4 = getelementptr inbounds %"class.icu_75::units::UnitPreferenceMetadata", ptr %this1, i32 0, i32 3
  invoke void @_ZN6icu_7510CharStringC2Ev(ptr noundef nonnull align 8 dereferenceable(60) %region4)
          to label %invoke.cont6 unwind label %lpad5

invoke.cont6:                                     ; preds = %invoke.cont
  %category7 = getelementptr inbounds %"class.icu_75::units::UnitPreferenceMetadata", ptr %this1, i32 0, i32 1
  call void @llvm.memcpy.p0.p0.i64(ptr align 8 %agg.tmp, ptr align 8 %category, i64 16, i1 false)
  %4 = load ptr, ptr %status.addr, align 8
  %5 = getelementptr inbounds { ptr, i32 }, ptr %agg.tmp, i32 0, i32 0
  %6 = load ptr, ptr %5, align 8
  %7 = getelementptr inbounds { ptr, i32 }, ptr %agg.tmp, i32 0, i32 1
  %8 = load i32, ptr %7, align 8
  %call = invoke noundef nonnull align 8 dereferenceable(60) ptr @_ZN6icu_7510CharString6appendENS_11StringPieceER10UErrorCode(ptr noundef nonnull align 8 dereferenceable(60) %category7, ptr %6, i32 %8, ptr noundef nonnull align 4 dereferenceable(4) %4)
          to label %invoke.cont9 unwind label %lpad8

invoke.cont9:                                     ; preds = %invoke.cont6
  %usage10 = getelementptr inbounds %"class.icu_75::units::UnitPreferenceMetadata", ptr %this1, i32 0, i32 2
  call void @llvm.memcpy.p0.p0.i64(ptr align 8 %agg.tmp11, ptr align 8 %usage, i64 16, i1 false)
  %9 = load ptr, ptr %status.addr, align 8
  %10 = getelementptr inbounds { ptr, i32 }, ptr %agg.tmp11, i32 0, i32 0
  %11 = load ptr, ptr %10, align 8
  %12 = getelementptr inbounds { ptr, i32 }, ptr %agg.tmp11, i32 0, i32 1
  %13 = load i32, ptr %12, align 8
  %call13 = invoke noundef nonnull align 8 dereferenceable(60) ptr @_ZN6icu_7510CharString6appendENS_11StringPieceER10UErrorCode(ptr noundef nonnull align 8 dereferenceable(60) %usage10, ptr %11, i32 %13, ptr noundef nonnull align 4 dereferenceable(4) %9)
          to label %invoke.cont12 unwind label %lpad8

invoke.cont12:                                    ; preds = %invoke.cont9
  %region14 = getelementptr inbounds %"class.icu_75::units::UnitPreferenceMetadata", ptr %this1, i32 0, i32 3
  call void @llvm.memcpy.p0.p0.i64(ptr align 8 %agg.tmp15, ptr align 8 %region, i64 16, i1 false)
  %14 = load ptr, ptr %status.addr, align 8
  %15 = getelementptr inbounds { ptr, i32 }, ptr %agg.tmp15, i32 0, i32 0
  %16 = load ptr, ptr %15, align 8
  %17 = getelementptr inbounds { ptr, i32 }, ptr %agg.tmp15, i32 0, i32 1
  %18 = load i32, ptr %17, align 8
  %call17 = invoke noundef nonnull align 8 dereferenceable(60) ptr @_ZN6icu_7510CharString6appendENS_11StringPieceER10UErrorCode(ptr noundef nonnull align 8 dereferenceable(60) %region14, ptr %16, i32 %18, ptr noundef nonnull align 4 dereferenceable(4) %14)
          to label %invoke.cont16 unwind label %lpad8

invoke.cont16:                                    ; preds = %invoke.cont12
  %19 = load i32, ptr %prefsOffset.addr, align 4
  %prefsOffset18 = getelementptr inbounds %"class.icu_75::units::UnitPreferenceMetadata", ptr %this1, i32 0, i32 4
  store i32 %19, ptr %prefsOffset18, align 8
  %20 = load i32, ptr %prefsCount.addr, align 4
  %prefsCount19 = getelementptr inbounds %"class.icu_75::units::UnitPreferenceMetadata", ptr %this1, i32 0, i32 5
  store i32 %20, ptr %prefsCount19, align 4
  ret void

lpad:                                             ; preds = %entry
  %21 = landingpad { ptr, i32 }
          cleanup
  %22 = extractvalue { ptr, i32 } %21, 0
  store ptr %22, ptr %exn.slot, align 8
  %23 = extractvalue { ptr, i32 } %21, 1
  store i32 %23, ptr %ehselector.slot, align 4
  br label %ehcleanup20

lpad5:                                            ; preds = %invoke.cont
  %24 = landingpad { ptr, i32 }
          cleanup
  %25 = extractvalue { ptr, i32 } %24, 0
  store ptr %25, ptr %exn.slot, align 8
  %26 = extractvalue { ptr, i32 } %24, 1
  store i32 %26, ptr %ehselector.slot, align 4
  br label %ehcleanup

lpad8:                                            ; preds = %invoke.cont12, %invoke.cont9, %invoke.cont6
  %27 = landingpad { ptr, i32 }
          cleanup
  %28 = extractvalue { ptr, i32 } %27, 0
  store ptr %28, ptr %exn.slot, align 8
  %29 = extractvalue { ptr, i32 } %27, 1
  store i32 %29, ptr %ehselector.slot, align 4
  call void @_ZN6icu_7510CharStringD2Ev(ptr noundef nonnull align 8 dereferenceable(60) %region4) #8
  br label %ehcleanup

ehcleanup:                                        ; preds = %lpad8, %lpad5
  call void @_ZN6icu_7510CharStringD2Ev(ptr noundef nonnull align 8 dereferenceable(60) %usage3) #8
  br label %ehcleanup20

ehcleanup20:                                      ; preds = %ehcleanup, %lpad
  call void @_ZN6icu_7510CharStringD2Ev(ptr noundef nonnull align 8 dereferenceable(60) %category2) #8
  br label %eh.resume

eh.resume:                                        ; preds = %ehcleanup20
  %exn = load ptr, ptr %exn.slot, align 8
  %sel = load i32, ptr %ehselector.slot, align 4
  %lpad.val = insertvalue { ptr, i32 } poison, ptr %exn, 0
  %lpad.val21 = insertvalue { ptr, i32 } %lpad.val, i32 %sel, 1
  resume { ptr, i32 } %lpad.val21
}