; Function Attrs: mustprogress uwtable
define void @_ZN6icu_755units22UnitPreferenceMetadataC2ENS_11StringPieceES2_S2_iiR10UErrorCode(ptr noundef nonnull align 8 dereferenceable(208) %this, ptr %category.coerce0, i32 %category.coerce1, ptr %usage.coerce0, i32 %usage.coerce1, ptr nocapture noundef readonly byval(%"class.icu_75::StringPiece") align 8 %region, i32 noundef %prefsOffset, i32 noundef %prefsCount, ptr noundef nonnull align 4 dereferenceable(4) %status) unnamed_addr #1 align 2 personality ptr @__gxx_personality_v0 {
entry:
  %category2 = getelementptr inbounds i8, ptr %this, i64 8
  tail call void @_ZN6icu_7515MaybeStackArrayIcLi40EEC1Ev(ptr noundef nonnull align 8 dereferenceable(53) %category2)
  %len.i = getelementptr inbounds i8, ptr %this, i64 64
  store i32 0, ptr %len.i, align 8
  %0 = load ptr, ptr %category2, align 8
  store i8 0, ptr %0, align 1
  %usage3 = getelementptr inbounds i8, ptr %this, i64 72
  invoke void @_ZN6icu_7515MaybeStackArrayIcLi40EEC1Ev(ptr noundef nonnull align 8 dereferenceable(53) %usage3)
          to label %invoke.cont unwind label %lpad

invoke.cont:                                      ; preds = %entry
  %len.i5 = getelementptr inbounds i8, ptr %this, i64 128
  store i32 0, ptr %len.i5, align 8
  %1 = load ptr, ptr %usage3, align 8
  store i8 0, ptr %1, align 1
  %region4 = getelementptr inbounds i8, ptr %this, i64 136
  invoke void @_ZN6icu_7515MaybeStackArrayIcLi40EEC1Ev(ptr noundef nonnull align 8 dereferenceable(53) %region4)
          to label %invoke.cont6 unwind label %lpad5

invoke.cont6:                                     ; preds = %invoke.cont
  %len.i6 = getelementptr inbounds i8, ptr %this, i64 192
  store i32 0, ptr %len.i6, align 8
  %2 = load ptr, ptr %region4, align 8
  store i8 0, ptr %2, align 1
  %call3.i8 = invoke noundef nonnull align 8 dereferenceable(60) ptr @_ZN6icu_7510CharString6appendEPKciR10UErrorCode(ptr noundef nonnull align 8 dereferenceable(60) %category2, ptr noundef %category.coerce0, i32 noundef %category.coerce1, ptr noundef nonnull align 4 dereferenceable(4) %status)
          to label %invoke.cont9 unwind label %lpad8

invoke.cont9:                                     ; preds = %invoke.cont6
  %call3.i9 = invoke noundef nonnull align 8 dereferenceable(60) ptr @_ZN6icu_7510CharString6appendEPKciR10UErrorCode(ptr noundef nonnull align 8 dereferenceable(60) %usage3, ptr noundef %usage.coerce0, i32 noundef %usage.coerce1, ptr noundef nonnull align 4 dereferenceable(4) %status)
          to label %invoke.cont12 unwind label %lpad8

invoke.cont12:                                    ; preds = %invoke.cont9
  %agg.tmp15.sroa.0.0.copyload = load ptr, ptr %region, align 8
  %agg.tmp15.sroa.2.0.region.sroa_idx = getelementptr inbounds i8, ptr %region, i64 8
  %agg.tmp15.sroa.2.0.copyload = load i32, ptr %agg.tmp15.sroa.2.0.region.sroa_idx, align 8
  %call3.i11 = invoke noundef nonnull align 8 dereferenceable(60) ptr @_ZN6icu_7510CharString6appendEPKciR10UErrorCode(ptr noundef nonnull align 8 dereferenceable(60) %region4, ptr noundef %agg.tmp15.sroa.0.0.copyload, i32 noundef %agg.tmp15.sroa.2.0.copyload, ptr noundef nonnull align 4 dereferenceable(4) %status)
          to label %invoke.cont16 unwind label %lpad8

invoke.cont16:                                    ; preds = %invoke.cont12
  %prefsOffset18 = getelementptr inbounds i8, ptr %this, i64 200
  store i32 %prefsOffset, ptr %prefsOffset18, align 8
  %prefsCount19 = getelementptr inbounds i8, ptr %this, i64 204
  store i32 %prefsCount, ptr %prefsCount19, align 4
  ret void

lpad:                                             ; preds = %entry
  %3 = landingpad { ptr, i32 }
          cleanup
  br label %ehcleanup20

lpad5:                                            ; preds = %invoke.cont
  %4 = landingpad { ptr, i32 }
          cleanup
  br label %ehcleanup

lpad8:                                            ; preds = %invoke.cont12, %invoke.cont9, %invoke.cont6
  %5 = landingpad { ptr, i32 }
          cleanup
  tail call void @_ZN6icu_7515MaybeStackArrayIcLi40EED1Ev(ptr noundef nonnull align 8 dereferenceable(53) %region4) #15
  br label %ehcleanup

ehcleanup:                                        ; preds = %lpad8, %lpad5
  %.pn = phi { ptr, i32 } [ %5, %lpad8 ], [ %4, %lpad5 ]
  tail call void @_ZN6icu_7515MaybeStackArrayIcLi40EED1Ev(ptr noundef nonnull align 8 dereferenceable(53) %usage3) #15
  br label %ehcleanup20

ehcleanup20:                                      ; preds = %ehcleanup, %lpad
  %.pn.pn = phi { ptr, i32 } [ %.pn, %ehcleanup ], [ %3, %lpad ]
  tail call void @_ZN6icu_7515MaybeStackArrayIcLi40EED1Ev(ptr noundef nonnull align 8 dereferenceable(53) %category2) #15
  resume { ptr, i32 } %.pn.pn
}